target datalayout = "e-m:e-p270:32:32-p271:32:32-p272:64:64-i64:64-i128:128-f80:128-n8:16:32:64-S128"
target triple = "x86_64-pc-linux-gnu"

%"class.absl::synchronization_internal::(anonymous namespace)::Vec.0" = type { ptr, [8 x i32], i32, i32 }
%"class.absl::synchronization_internal::(anonymous namespace)::NodeSet" = type <{ %"class.absl::synchronization_internal::(anonymous namespace)::Vec.0", i32, [4 x i8] }>

; Function Attrs: mustprogress uwtable
define internal void @_ZN4absl24synchronization_internal12_GLOBAL__N_13VecIiE7DiscardEv(ptr noundef nonnull align 8 dereferenceable(48) %0) #0 align 2 {
  %2 = alloca ptr, align 8
  store ptr %0, ptr %2, align 8, !tbaa !63
  %3 = load ptr, ptr %2, align 8
  %4 = getelementptr inbounds nuw %"class.absl::synchronization_internal::(anonymous namespace)::Vec.0", ptr %3, i32 0, i32 0
  %5 = load ptr, ptr %4, align 8, !tbaa !66
  %6 = getelementptr inbounds nuw %"class.absl::synchronization_internal::(anonymous namespace)::Vec.0", ptr %3, i32 0, i32 1
  %7 = getelementptr inbounds [8 x i32], ptr %6, i64 0, i64 0
  %8 = icmp ne ptr %5, %7
  br i1 %8, label %9, label %12

9:                                                ; preds = %1
  %10 = getelementptr inbounds nuw %"class.absl::synchronization_internal::(anonymous namespace)::Vec.0", ptr %3, i32 0, i32 0
  %11 = load ptr, ptr %10, align 8, !tbaa !66
  call void @_ZN4absl13base_internal13LowLevelAlloc4FreeEPv(ptr noundef %11)
  br label %12

12:                                               ; preds = %9, %1
  ret void
}

; Function Attrs: mustprogress nounwind uwtable
define internal void @_ZN4absl24synchronization_internal12_GLOBAL__N_13VecIiED2Ev(ptr noundef nonnull align 8 dereferenceable(48) %0) unnamed_addr #2 align 2 personality ptr @__gxx_personality_v0 {
  %2 = alloca ptr, align 8
  store ptr %0, ptr %2, align 8, !tbaa !63
  %3 = load ptr, ptr %2, align 8
  invoke void @_ZN4absl24synchronization_internal12_GLOBAL__N_13VecIiE7DiscardEv(ptr noundef nonnull align 8 dereferenceable(48) %3)
          to label %4 unwind label %5

4:                                                ; preds = %1
  ret void

5:                                                ; preds = %1
  %6 = landingpad { ptr, i32 }
          catch ptr null
  %7 = extractvalue { ptr, i32 } %6, 0
  call void @__clang_call_terminate(ptr %7) #13
  unreachable
}

; Function Attrs: inlinehint mustprogress nounwind uwtable
define internal void @_ZN4absl24synchronization_internal12_GLOBAL__N_17NodeSetD2Ev(ptr noundef nonnull align 8 dereferenceable(52) %0) unnamed_addr #5 align 2 {
  %2 = alloca ptr, align 8
  store ptr %0, ptr %2, align 8, !tbaa !45
  %3 = load ptr, ptr %2, align 8
  %4 = getelementptr inbounds nuw %"class.absl::synchronization_internal::(anonymous namespace)::NodeSet", ptr %3, i32 0, i32 0
  call void @_ZN4absl24synchronization_internal12_GLOBAL__N_13VecIiED2Ev(ptr noundef nonnull align 8 dereferenceable(48) %4) #12
  ret void
}