; Function Attrs: inlinehint mustprogress nounwind uwtable
define internal fastcc void @_ZN4absl24synchronization_internal12_GLOBAL__N_17NodeSetD2Ev(ptr noundef nonnull readonly align 8 captures(address) dereferenceable(52) %0) unnamed_addr #6 align 2 personality ptr @__gxx_personality_v0 {
  %2 = load ptr, ptr %0, align 8, !tbaa !22
  %3 = getelementptr inbounds nuw i8, ptr %0, i64 8
  %.not.i.i = icmp eq ptr %2, %3
  br i1 %.not.i.i, label %_ZN4absl24synchronization_internal12_GLOBAL__N_13VecIiED2Ev.exit, label %4

4:                                                ; preds = %1
  invoke void @_ZN4absl13base_internal13LowLevelAlloc4FreeEPv(ptr noundef %2)
          to label %_ZN4absl24synchronization_internal12_GLOBAL__N_13VecIiED2Ev.exit unwind label %5

5:                                                ; preds = %4
  %6 = landingpad { ptr, i32 }
          catch ptr null
  %7 = extractvalue { ptr, i32 } %6, 0
  tail call void @__clang_call_terminate(ptr %7) #18
  unreachable

_ZN4absl24synchronization_internal12_GLOBAL__N_13VecIiED2Ev.exit: ; preds = %1, %4
  ret void
}